
AtmelStart.elf:     file format elf32-littlearm

Sections:
Idx Name          Size      VMA       LMA       File off  Algn
  0 .text         000005d8  00000000  00000000  00001000  2**2
                  CONTENTS, ALLOC, LOAD, READONLY, CODE
  1 .relocate     00000000  20000000  20000000  000015d8  2**0
                  CONTENTS
  2 .bss          00000020  20000000  20000000  00002000  2**2
                  ALLOC
  3 .stack        00002000  20000020  20000020  00002000  2**0
                  ALLOC
  4 .ARM.attributes 00000028  00000000  00000000  000015d8  2**0
                  CONTENTS, READONLY
  5 .comment      0000001e  00000000  00000000  00001600  2**0
                  CONTENTS, READONLY
  6 .debug_info   0000949c  00000000  00000000  0000161e  2**0
                  CONTENTS, READONLY, DEBUGGING, OCTETS
  7 .debug_abbrev 00001745  00000000  00000000  0000aaba  2**0
                  CONTENTS, READONLY, DEBUGGING, OCTETS
  8 .debug_loclists 000012d1  00000000  00000000  0000c1ff  2**0
                  CONTENTS, READONLY, DEBUGGING, OCTETS
  9 .debug_aranges 00000250  00000000  00000000  0000d4d0  2**3
                  CONTENTS, READONLY, DEBUGGING, OCTETS
 10 .debug_rnglists 00000325  00000000  00000000  0000d720  2**0
                  CONTENTS, READONLY, DEBUGGING, OCTETS
 11 .debug_macro  000039b7  00000000  00000000  0000da45  2**0
                  CONTENTS, READONLY, DEBUGGING, OCTETS
 12 .debug_line   00005b0a  00000000  00000000  000113fc  2**0
                  CONTENTS, READONLY, DEBUGGING, OCTETS
 13 .debug_str    0007bd28  00000000  00000000  00016f06  2**0
                  CONTENTS, READONLY, DEBUGGING, OCTETS
 14 .debug_frame  00000364  00000000  00000000  00092c30  2**2
                  CONTENTS, READONLY, DEBUGGING, OCTETS
 15 .debug_line_str 00000092  00000000  00000000  00092f94  2**0
                  CONTENTS, READONLY, DEBUGGING, OCTETS

Disassembly of section .text:

00000000 <exception_table>:
/**
 * \brief Perform delay in us
 */
void delay_us(const uint16_t us)
{
	_delay_cycles(hardware, _get_cycles_for_us(us));
   0:	20 20 00 20 01 01 00 00 fd 00 00 00 fd 00 00 00       . ............
	...
		SCB->SCR &= ~SCB_SCR_SLEEPDEEP_Msk;
		PM->SLEEP.reg = mode;
		return ERR_NONE;
	case 3:
		SCB->SCR |= SCB_SCR_SLEEPDEEP_Msk;
		return ERR_NONE;
  2c:	fd 00 00 00 00 00 00 00 00 00 00 00 fd 00 00 00     ................
  3c:	fd 00 00 00 fd 00 00 00 fd 00 00 00 fd 00 00 00     ................
  4c:	fd 00 00 00 fd 00 00 00 fd 00 00 00 fd 00 00 00     ................
  5c:	fd 00 00 00 fd 00 00 00 fd 00 00 00 fd 00 00 00     ................
  6c:	fd 00 00 00 fd 00 00 00 fd 00 00 00 fd 00 00 00     ................
  7c:	fd 00 00 00 fd 00 00 00 fd 00 00 00 fd 00 00 00     ................
  8c:	fd 00 00 00 fd 00 00 00 00 00 00 00 00 00 00 00     ................
  9c:	fd 00 00 00 fd 00 00 00 fd 00 00 00 fd 00 00 00     ................
  ac:	fd 00 00 00 00 00 00 00                             ........

000000b4 <__do_global_dtors_aux>:
  b4:	b510      	push	{r4, lr}
  b6:	4c06      	ldr	r4, [pc, #24]	@ (d0 <__do_global_dtors_aux+0x1c>)
  b8:	7823      	ldrb	r3, [r4, #0]
  ba:	2b00      	cmp	r3, #0
  bc:	d107      	bne.n	ce <__do_global_dtors_aux+0x1a>
  be:	4b05      	ldr	r3, [pc, #20]	@ (d4 <__do_global_dtors_aux+0x20>)
  c0:	2b00      	cmp	r3, #0
  c2:	d002      	beq.n	ca <__do_global_dtors_aux+0x16>
  c4:	4804      	ldr	r0, [pc, #16]	@ (d8 <__do_global_dtors_aux+0x24>)
  c6:	e000      	b.n	ca <__do_global_dtors_aux+0x16>
  c8:	bf00      	nop
  ca:	2301      	movs	r3, #1
  cc:	7023      	strb	r3, [r4, #0]
  ce:	bd10      	pop	{r4, pc}
  d0:	20000000 	.word	0x20000000
  d4:	00000000 	.word	0x00000000
  d8:	000005d8 	.word	0x000005d8

000000dc <frame_dummy>:
  dc:	4b04      	ldr	r3, [pc, #16]	@ (f0 <frame_dummy+0x14>)
  de:	b510      	push	{r4, lr}
  e0:	2b00      	cmp	r3, #0
  e2:	d003      	beq.n	ec <frame_dummy+0x10>
  e4:	4903      	ldr	r1, [pc, #12]	@ (f4 <frame_dummy+0x18>)
  e6:	4804      	ldr	r0, [pc, #16]	@ (f8 <frame_dummy+0x1c>)
  e8:	e000      	b.n	ec <frame_dummy+0x10>
  ea:	bf00      	nop
  ec:	bd10      	pop	{r4, pc}
  ee:	46c0      	nop			@ (mov r8, r8)
  f0:	00000000 	.word	0x00000000
  f4:	20000004 	.word	0x20000004
  f8:	000005d8 	.word	0x000005d8

000000fc <Dummy_Handler>:
/**
 * \brief Default interrupt handler for unused IRQs.
 */
void Dummy_Handler(void)
{
	while (1) {
  fc:	e7fe      	b.n	fc <Dummy_Handler>
	...

00000100 <Reset_Handler>:
	if (pSrc != pDest) {
 100:	4a1f      	ldr	r2, [pc, #124]	@ (180 <Reset_Handler+0x80>)
 102:	4b20      	ldr	r3, [pc, #128]	@ (184 <Reset_Handler+0x84>)
{
 104:	b570      	push	{r4, r5, r6, lr}
		for (; pDest < &_erelocate;) {
 106:	4920      	ldr	r1, [pc, #128]	@ (188 <Reset_Handler+0x88>)
	if (pSrc != pDest) {
 108:	429a      	cmp	r2, r3
 10a:	d133      	bne.n	174 <Reset_Handler+0x74>
		*pDest++ = 0;
 10c:	2100      	movs	r1, #0
 10e:	4b1f      	ldr	r3, [pc, #124]	@ (18c <Reset_Handler+0x8c>)
	for (pDest = &_szero; pDest < &_ezero;) {
 110:	4a1f      	ldr	r2, [pc, #124]	@ (190 <Reset_Handler+0x90>)
 112:	4293      	cmp	r3, r2
 114:	d331      	bcc.n	17a <Reset_Handler+0x7a>
	SCB->VTOR = ((uint32_t)pSrc & SCB_VTOR_TBLOFF_Msk);
 116:	22ff      	movs	r2, #255	@ 0xff
 118:	4b1e      	ldr	r3, [pc, #120]	@ (194 <Reset_Handler+0x94>)
	USB->DEVICE.QOSCTRL.bit.CQOS = 2;
 11a:	2103      	movs	r1, #3
	SCB->VTOR = ((uint32_t)pSrc & SCB_VTOR_TBLOFF_Msk);
 11c:	4393      	bics	r3, r2
 11e:	4a1e      	ldr	r2, [pc, #120]	@ (198 <Reset_Handler+0x98>)
	USB->DEVICE.QOSCTRL.bit.DQOS = 2;
 120:	250c      	movs	r5, #12
	SCB->VTOR = ((uint32_t)pSrc & SCB_VTOR_TBLOFF_Msk);
 122:	6093      	str	r3, [r2, #8]
	SBMATRIX->SFR[SBMATRIX_SLAVE_HMCRAMC0].reg = 2;
 124:	2202      	movs	r2, #2
	USB->DEVICE.QOSCTRL.bit.DQOS = 2;
 126:	2408      	movs	r4, #8
	SBMATRIX->SFR[SBMATRIX_SLAVE_HMCRAMC0].reg = 2;
 128:	4b1c      	ldr	r3, [pc, #112]	@ (19c <Reset_Handler+0x9c>)
	USB->DEVICE.QOSCTRL.bit.CQOS = 2;
 12a:	481d      	ldr	r0, [pc, #116]	@ (1a0 <Reset_Handler+0xa0>)
	SBMATRIX->SFR[SBMATRIX_SLAVE_HMCRAMC0].reg = 2;
 12c:	625a      	str	r2, [r3, #36]	@ 0x24
	USB->DEVICE.QOSCTRL.bit.CQOS = 2;
 12e:	78c3      	ldrb	r3, [r0, #3]
 130:	438b      	bics	r3, r1
 132:	4313      	orrs	r3, r2
 134:	70c3      	strb	r3, [r0, #3]
	USB->DEVICE.QOSCTRL.bit.DQOS = 2;
 136:	78c3      	ldrb	r3, [r0, #3]
 138:	43ab      	bics	r3, r5
 13a:	4323      	orrs	r3, r4
 13c:	70c3      	strb	r3, [r0, #3]
	DMAC->QOSCTRL.bit.DQOS   = 2;
 13e:	2030      	movs	r0, #48	@ 0x30
 140:	4b18      	ldr	r3, [pc, #96]	@ (1a4 <Reset_Handler+0xa4>)
 142:	7b9e      	ldrb	r6, [r3, #14]
 144:	4386      	bics	r6, r0
 146:	3810      	subs	r0, #16
 148:	4330      	orrs	r0, r6
 14a:	7398      	strb	r0, [r3, #14]
	DMAC->QOSCTRL.bit.FQOS   = 2;
 14c:	7b98      	ldrb	r0, [r3, #14]
 14e:	43a8      	bics	r0, r5
 150:	4304      	orrs	r4, r0
 152:	739c      	strb	r4, [r3, #14]
	DMAC->QOSCTRL.bit.WRBQOS = 2;
 154:	7b98      	ldrb	r0, [r3, #14]
 156:	4388      	bics	r0, r1
 158:	4302      	orrs	r2, r0
 15a:	739a      	strb	r2, [r3, #14]
	NVMCTRL->CTRLB.bit.MANW = 1;
 15c:	2380      	movs	r3, #128	@ 0x80
 15e:	4a12      	ldr	r2, [pc, #72]	@ (1a8 <Reset_Handler+0xa8>)
 160:	6851      	ldr	r1, [r2, #4]
 162:	430b      	orrs	r3, r1
 164:	6053      	str	r3, [r2, #4]
	__libc_init_array();
 166:	4b11      	ldr	r3, [pc, #68]	@ (1ac <Reset_Handler+0xac>)
 168:	4798      	blx	r3
	main();
 16a:	4b11      	ldr	r3, [pc, #68]	@ (1b0 <Reset_Handler+0xb0>)
 16c:	4798      	blx	r3
	while (1)
 16e:	e7fe      	b.n	16e <Reset_Handler+0x6e>
			*pDest++ = *pSrc++;
 170:	ca01      	ldmia	r2!, {r0}
 172:	c301      	stmia	r3!, {r0}
		for (; pDest < &_erelocate;) {
 174:	428b      	cmp	r3, r1
 176:	d3fb      	bcc.n	170 <Reset_Handler+0x70>
 178:	e7c8      	b.n	10c <Reset_Handler+0xc>
		*pDest++ = 0;
 17a:	c302      	stmia	r3!, {r1}
 17c:	e7c9      	b.n	112 <Reset_Handler+0x12>
 17e:	46c0      	nop			@ (mov r8, r8)
 180:	000005d8 	.word	0x000005d8
 184:	20000000 	.word	0x20000000
 188:	20000000 	.word	0x20000000
 18c:	20000000 	.word	0x20000000
 190:	20000020 	.word	0x20000020
 194:	00000000 	.word	0x00000000
 198:	e000ed00 	.word	0xe000ed00
 19c:	410070fc 	.word	0x410070fc
 1a0:	41005000 	.word	0x41005000
 1a4:	41004800 	.word	0x41004800
 1a8:	41004000 	.word	0x41004000
 1ac:	00000571 	.word	0x00000571
 1b0:	000002b9 	.word	0x000002b9

000001b4 <delay_ms>:
/**
 * \brief Perform delay in ms
 */
void delay_ms(const uint16_t ms)
{
	_delay_cycles(hardware, _get_cycles_for_ms(ms));
 1b4:	4b04      	ldr	r3, [pc, #16]	@ (1c8 <delay_ms+0x14>)
{
 1b6:	b510      	push	{r4, lr}
	_delay_cycles(hardware, _get_cycles_for_ms(ms));
 1b8:	681c      	ldr	r4, [r3, #0]
 1ba:	4b04      	ldr	r3, [pc, #16]	@ (1cc <delay_ms+0x18>)
 1bc:	4798      	blx	r3
 1be:	0001      	movs	r1, r0
 1c0:	4b03      	ldr	r3, [pc, #12]	@ (1d0 <delay_ms+0x1c>)
 1c2:	0020      	movs	r0, r4
 1c4:	4798      	blx	r3
}
 1c6:	bd10      	pop	{r4, pc}
 1c8:	2000001c 	.word	0x2000001c
 1cc:	00000225 	.word	0x00000225
 1d0:	0000023d 	.word	0x0000023d

000001d4 <_pm_init>:
}

static inline void hri_pm_set_CPUSEL_CPUDIV_bf(const void *const hw, hri_pm_cpusel_reg_t mask)
{
	PM_CRITICAL_SECTION_ENTER();
	((Pm *)hw)->CPUSEL.reg |= PM_CPUSEL_CPUDIV(mask);
 1d4:	4b06      	ldr	r3, [pc, #24]	@ (1f0 <_pm_init+0x1c>)
 1d6:	7a1a      	ldrb	r2, [r3, #8]
 1d8:	b2d2      	uxtb	r2, r2
 1da:	721a      	strb	r2, [r3, #8]
}

static inline void hri_pm_set_APBASEL_APBADIV_bf(const void *const hw, hri_pm_apbasel_reg_t mask)
{
	PM_CRITICAL_SECTION_ENTER();
	((Pm *)hw)->APBASEL.reg |= PM_APBASEL_APBADIV(mask);
 1dc:	7a5a      	ldrb	r2, [r3, #9]
 1de:	b2d2      	uxtb	r2, r2
 1e0:	725a      	strb	r2, [r3, #9]
}

static inline void hri_pm_set_APBBSEL_APBBDIV_bf(const void *const hw, hri_pm_apbbsel_reg_t mask)
{
	PM_CRITICAL_SECTION_ENTER();
	((Pm *)hw)->APBBSEL.reg |= PM_APBBSEL_APBBDIV(mask);
 1e2:	7a9a      	ldrb	r2, [r3, #10]
 1e4:	b2d2      	uxtb	r2, r2
 1e6:	729a      	strb	r2, [r3, #10]
}

static inline void hri_pm_set_APBCSEL_APBCDIV_bf(const void *const hw, hri_pm_apbcsel_reg_t mask)
{
	PM_CRITICAL_SECTION_ENTER();
	((Pm *)hw)->APBCSEL.reg |= PM_APBCSEL_APBCDIV(mask);
 1e8:	7ada      	ldrb	r2, [r3, #11]
 1ea:	b2d2      	uxtb	r2, r2
 1ec:	72da      	strb	r2, [r3, #11]
{
	hri_pm_set_CPUSEL_CPUDIV_bf(PM, CONF_CPU_DIV);
	hri_pm_set_APBASEL_APBADIV_bf(PM, CONF_APBA_DIV);
	hri_pm_set_APBBSEL_APBBDIV_bf(PM, CONF_APBB_DIV);
	hri_pm_set_APBCSEL_APBCDIV_bf(PM, CONF_APBC_DIV);
}
 1ee:	4770      	bx	lr
 1f0:	40000400 	.word	0x40000400

000001f4 <_init_chip>:
}

static inline void hri_nvmctrl_set_CTRLB_RWS_bf(const void *const hw, hri_nvmctrl_ctrlb_reg_t mask)
{
	NVMCTRL_CRITICAL_SECTION_ENTER();
	((Nvmctrl *)hw)->CTRLB.reg |= NVMCTRL_CTRLB_RWS(mask);
 1f4:	4b06      	ldr	r3, [pc, #24]	@ (210 <_init_chip+0x1c>)

/**
 * \brief Initialize the hardware abstraction layer
 */
void _init_chip(void)
{
 1f6:	b510      	push	{r4, lr}
 1f8:	685a      	ldr	r2, [r3, #4]
 1fa:	605a      	str	r2, [r3, #4]
	hri_nvmctrl_set_CTRLB_RWS_bf(NVMCTRL, CONF_NVM_WAIT_STATE);

	_pm_init();
 1fc:	4b05      	ldr	r3, [pc, #20]	@ (214 <_init_chip+0x20>)
 1fe:	4798      	blx	r3
	_sysctrl_init_sources();
 200:	4b05      	ldr	r3, [pc, #20]	@ (218 <_init_chip+0x24>)
 202:	4798      	blx	r3
#if _GCLK_INIT_1ST
	_gclk_init_generators_by_fref(_GCLK_INIT_1ST);
#endif
	_sysctrl_init_referenced_generators();
 204:	4b05      	ldr	r3, [pc, #20]	@ (21c <_init_chip+0x28>)
 206:	4798      	blx	r3
	_gclk_init_generators_by_fref(_GCLK_INIT_LAST);
 208:	20ff      	movs	r0, #255	@ 0xff
 20a:	4b05      	ldr	r3, [pc, #20]	@ (220 <_init_chip+0x2c>)
 20c:	4798      	blx	r3
#if CONF_DMAC_ENABLE
	_pm_enable_bus_clock(PM_BUS_AHB, DMAC);
	_pm_enable_bus_clock(PM_BUS_APBB, DMAC);
	_dma_init();
#endif
}
 20e:	bd10      	pop	{r4, pc}
 210:	41004000 	.word	0x41004000
 214:	000001d5 	.word	0x000001d5
 218:	00000245 	.word	0x00000245
 21c:	00000289 	.word	0x00000289
 220:	00000299 	.word	0x00000299

00000224 <_get_cycles_for_ms>:
{
	switch (power) {
	case 8:
		return (ms * (freq / 100000) + 2) / 3 * 100;
	case 7:
		return (ms * (freq / 10000) + 2) / 3 * 10;
 224:	2364      	movs	r3, #100	@ 0x64
 226:	4358      	muls	r0, r3

/**
 * \brief Retrieve the amount of cycles to delay for the given amount of ms
 */
uint32_t _get_cycles_for_ms(const uint16_t ms)
{
 228:	b510      	push	{r4, lr}
		return (ms * (freq / 10000) + 2) / 3 * 10;
 22a:	4b03      	ldr	r3, [pc, #12]	@ (238 <_get_cycles_for_ms+0x14>)
 22c:	2103      	movs	r1, #3
 22e:	3002      	adds	r0, #2
 230:	4798      	blx	r3
 232:	230a      	movs	r3, #10
 234:	4358      	muls	r0, r3
	return _get_cycles_for_ms_internal(ms, CONF_CPU_FREQUENCY, CPU_FREQ_POWER);
}
 236:	bd10      	pop	{r4, pc}
 238:	000004e1 	.word	0x000004e1

0000023c <_delay_cycles>:
{
#ifndef _UNIT_TEST_
	(void)hw;
	(void)cycles;
#if defined __GNUC__
	__asm(".syntax unified\n"
 23c:	3901      	subs	r1, #1
 23e:	d8fd      	bhi.n	23c <_delay_cycles>
	__asm("__delay:\n"
	      "subs r1, r1, #1\n"
	      "bhi __delay\n");
#endif
#endif
}
 240:	4770      	bx	lr
	...

00000244 <_sysctrl_init_sources>:
}

static inline hri_sysctrl_osc8m_reg_t hri_sysctrl_read_OSC8M_CALIB_bf(const void *const hw)
{
	uint32_t tmp;
	tmp = ((Sysctrl *)hw)->OSC8M.reg;
 244:	4b0d      	ldr	r3, [pc, #52]	@ (27c <_sysctrl_init_sources+0x38>)
	hri_sysctrl_write_OSC8M_reg(hw,
	                            SYSCTRL_OSC8M_FRANGE(hri_sysctrl_read_OSC8M_FRANGE_bf(hw)) |
#if CONF_OSC8M_OVERWRITE_CALIBRATION == 1
	                                SYSCTRL_OSC8M_CALIB(CONF_OSC8M_CALIB) |
#else
	                                SYSCTRL_OSC8M_CALIB(calib) |
 246:	480e      	ldr	r0, [pc, #56]	@ (280 <_sysctrl_init_sources+0x3c>)
 248:	6a19      	ldr	r1, [r3, #32]
}

static inline hri_sysctrl_osc8m_reg_t hri_sysctrl_read_OSC8M_FRANGE_bf(const void *const hw)
{
	uint32_t tmp;
	tmp = ((Sysctrl *)hw)->OSC8M.reg;
 24a:	6a1a      	ldr	r2, [r3, #32]
 24c:	4001      	ands	r1, r0
	                            SYSCTRL_OSC8M_FRANGE(hri_sysctrl_read_OSC8M_FRANGE_bf(hw)) |
 24e:	0f92      	lsrs	r2, r2, #30
 250:	0792      	lsls	r2, r2, #30
 252:	430a      	orrs	r2, r1
	hri_sysctrl_write_OSC8M_reg(hw,
 254:	490b      	ldr	r1, [pc, #44]	@ (284 <_sysctrl_init_sources+0x40>)
 256:	430a      	orrs	r2, r1
}

static inline void hri_sysctrl_write_OSC8M_reg(const void *const hw, hri_sysctrl_osc8m_reg_t data)
{
	SYSCTRL_CRITICAL_SECTION_ENTER();
	((Sysctrl *)hw)->OSC8M.reg = data;
 258:	621a      	str	r2, [r3, #32]
	((Sysctrl *)hw)->OSC32K.reg |= SYSCTRL_OSC32K_ENABLE;
 25a:	2202      	movs	r2, #2
 25c:	6999      	ldr	r1, [r3, #24]
 25e:	430a      	orrs	r2, r1
	tmp = (tmp & SYSCTRL_OSCULP32K_CALIB_Msk) >> SYSCTRL_OSCULP32K_CALIB_Pos;
 260:	211f      	movs	r1, #31
	((Sysctrl *)hw)->OSC32K.reg |= SYSCTRL_OSC32K_ENABLE;
 262:	619a      	str	r2, [r3, #24]
	tmp = ((Sysctrl *)hw)->OSCULP32K.reg;
 264:	7f1a      	ldrb	r2, [r3, #28]
	tmp = (tmp & SYSCTRL_OSCULP32K_CALIB_Msk) >> SYSCTRL_OSCULP32K_CALIB_Pos;
 266:	400a      	ands	r2, r1
	((Sysctrl *)hw)->OSCULP32K.reg = data;
 268:	771a      	strb	r2, [r3, #28]
#endif
#endif

#if CONF_OSC8M_CONFIG == 1
#if CONF_OSC8M_ENABLE == 1
	while (!hri_sysctrl_get_PCLKSR_OSC8MRDY_bit(hw))
 26a:	2208      	movs	r2, #8
	return (((Sysctrl *)hw)->PCLKSR.reg & SYSCTRL_PCLKSR_OSC8MRDY) >> SYSCTRL_PCLKSR_OSC8MRDY_Pos;
 26c:	68d9      	ldr	r1, [r3, #12]
 26e:	4211      	tst	r1, r2
 270:	d0fc      	beq.n	26c <_sysctrl_init_sources+0x28>
	((Sysctrl *)hw)->OSC8M.reg |= SYSCTRL_OSC8M_ONDEMAND;
 272:	2280      	movs	r2, #128	@ 0x80
 274:	6a19      	ldr	r1, [r3, #32]
 276:	430a      	orrs	r2, r1
 278:	621a      	str	r2, [r3, #32]
	hri_sysctrl_set_OSC8M_ONDEMAND_bit(hw);
#endif
#endif

	(void)calib, (void)hw;
}
 27a:	4770      	bx	lr
 27c:	40000800 	.word	0x40000800
 280:	0fff0000 	.word	0x0fff0000
 284:	00000302 	.word	0x00000302

00000288 <_sysctrl_init_referenced_generators>:
	((Sysctrl *)hw)->OSC32K.reg &= ~SYSCTRL_OSC32K_ENABLE;
 288:	2102      	movs	r1, #2
 28a:	4a02      	ldr	r2, [pc, #8]	@ (294 <_sysctrl_init_referenced_generators+0xc>)
 28c:	6993      	ldr	r3, [r2, #24]
 28e:	438b      	bics	r3, r1
 290:	6193      	str	r3, [r2, #24]
	/* Disable after all possible configurations needs sync written. */
	hri_sysctrl_clear_OSC32K_ENABLE_bit(hw);
#endif

	(void)hw;
}
 292:	4770      	bx	lr
 294:	40000800 	.word	0x40000800

00000298 <_gclk_init_generators_by_fref>:

void _gclk_init_generators_by_fref(uint32_t bm)
{

#if CONF_GCLK_GENERATOR_0_CONFIG == 1
	if (bm & (1ul << 0)) {
 298:	07c0      	lsls	r0, r0, #31
 29a:	d509      	bpl.n	2b0 <_gclk_init_generators_by_fref+0x18>
}

static inline void hri_gclk_write_GENDIV_reg(const void *const hw, hri_gclk_gendiv_reg_t data)
{
	GCLK_CRITICAL_SECTION_ENTER();
	((Gclk *)hw)->GENDIV.reg = data;
 29c:	2380      	movs	r3, #128	@ 0x80
 29e:	4a05      	ldr	r2, [pc, #20]	@ (2b4 <_gclk_init_generators_by_fref+0x1c>)
 2a0:	005b      	lsls	r3, r3, #1
 2a2:	6093      	str	r3, [r2, #8]
	((Gclk *)hw)->GENCTRL.reg = data;
 2a4:	2383      	movs	r3, #131	@ 0x83
 2a6:	025b      	lsls	r3, r3, #9
 2a8:	6053      	str	r3, [r2, #4]
	while (((const Gclk *)hw)->STATUS.bit.SYNCBUSY)
 2aa:	7853      	ldrb	r3, [r2, #1]
 2ac:	09db      	lsrs	r3, r3, #7
 2ae:	d1fc      	bne.n	2aa <_gclk_init_generators_by_fref+0x12>
		        | (CONF_GCLK_GEN_8_DIVSEL << GCLK_GENCTRL_DIVSEL_Pos) | (CONF_GCLK_GEN_8_OE << GCLK_GENCTRL_OE_Pos)
		        | (CONF_GCLK_GEN_8_OOV << GCLK_GENCTRL_OOV_Pos) | (CONF_GCLK_GEN_8_IDC << GCLK_GENCTRL_IDC_Pos)
		        | (CONF_GCLK_GENERATOR_8_CONFIG << GCLK_GENCTRL_GENEN_Pos) | CONF_GCLK_GEN_8_SRC | GCLK_GENCTRL_ID(8));
	}
#endif
}
 2b0:	4770      	bx	lr
 2b2:	46c0      	nop			@ (mov r8, r8)
 2b4:	40000c00 	.word	0x40000c00

000002b8 <main>:
#include <atmel_start.h>

int main(void)
{
 2b8:	b570      	push	{r4, r5, r6, lr}
	/* Initializes MCU, drivers and middleware */
	atmel_start_init();
 2ba:	4b05      	ldr	r3, [pc, #20]	@ (2d0 <main+0x18>)
	((Port *)hw)->Group[submodule_index].OUTCLR.reg = mask;
}

static inline void hri_port_toggle_OUT_reg(const void *const hw, uint8_t submodule_index, hri_port_out_reg_t mask)
{
	((Port *)hw)->Group[submodule_index].OUTTGL.reg = mask;
 2bc:	2580      	movs	r5, #128	@ 0x80
 2be:	4798      	blx	r3
 2c0:	4c04      	ldr	r4, [pc, #16]	@ (2d4 <main+0x1c>)
 2c2:	00ad      	lsls	r5, r5, #2

	/* Replace with your application code */
	while (1) {
		gpio_toggle_pin_level(RGB_GREEN);

		delay_ms(500);
 2c4:	20fa      	movs	r0, #250	@ 0xfa
 2c6:	4b04      	ldr	r3, [pc, #16]	@ (2d8 <main+0x20>)
 2c8:	6025      	str	r5, [r4, #0]
 2ca:	0040      	lsls	r0, r0, #1
 2cc:	4798      	blx	r3
	while (1) {
 2ce:	e7f9      	b.n	2c4 <main+0xc>
 2d0:	000004d5 	.word	0x000004d5
 2d4:	6000009c 	.word	0x6000009c
 2d8:	000001b5 	.word	0x000001b5

000002dc <gpio_set_pin_direction>:
 *                      GPIO_DIRECTION_OFF = Disables the pin
 *                      (low power state)
 */
static inline void gpio_set_pin_direction(const uint8_t pin, const enum gpio_direction direction)
{
	_gpio_set_direction((enum gpio_port)GPIO_PORT(pin), 1U << GPIO_PIN(pin), direction);
 2dc:	231f      	movs	r3, #31
 2de:	2201      	movs	r2, #1
 2e0:	4003      	ands	r3, r0
 2e2:	409a      	lsls	r2, r3
	((Port *)hw)->Group[submodule_index].DIRCLR.reg = mask;
 2e4:	0940      	lsrs	r0, r0, #5
{
 2e6:	b530      	push	{r4, r5, lr}
 2e8:	01c3      	lsls	r3, r0, #7
		    PORT, port, PORT_WRCONFIG_HWSEL | PORT_WRCONFIG_WRPINCFG | ((mask & 0xffff0000) >> 16));
		break;

	case GPIO_DIRECTION_IN:
		hri_port_clear_DIR_reg(PORT_IOBUS, port, mask);
		hri_port_write_WRCONFIG_reg(PORT, port, PORT_WRCONFIG_WRPINCFG | PORT_WRCONFIG_INEN | (mask & 0xffff));
 2ea:	b295      	uxth	r5, r2
		hri_port_write_WRCONFIG_reg(PORT,
		                            port,
		                            PORT_WRCONFIG_HWSEL | PORT_WRCONFIG_WRPINCFG | PORT_WRCONFIG_INEN
		                                | ((mask & 0xffff0000) >> 16));
 2ec:	0c14      	lsrs	r4, r2, #16
	switch (direction) {
 2ee:	2902      	cmp	r1, #2
 2f0:	d00c      	beq.n	30c <gpio_set_pin_direction+0x30>
 2f2:	21c0      	movs	r1, #192	@ 0xc0
 2f4:	05c9      	lsls	r1, r1, #23
 2f6:	1859      	adds	r1, r3, r1
 2f8:	604a      	str	r2, [r1, #4]
		hri_port_write_WRCONFIG_reg(PORT, port, PORT_WRCONFIG_WRPINCFG | PORT_WRCONFIG_INEN | (mask & 0xffff));
 2fa:	4a0b      	ldr	r2, [pc, #44]	@ (328 <gpio_set_pin_direction+0x4c>)

static inline void hri_port_write_WRCONFIG_reg(const void *const hw, uint8_t submodule_index,
                                               hri_port_wrconfig_reg_t data)
{
	PORT_CRITICAL_SECTION_ENTER();
	((Port *)hw)->Group[submodule_index].WRCONFIG.reg = data;
 2fc:	490b      	ldr	r1, [pc, #44]	@ (32c <gpio_set_pin_direction+0x50>)
 2fe:	432a      	orrs	r2, r5
 300:	185b      	adds	r3, r3, r1
 302:	629a      	str	r2, [r3, #40]	@ 0x28
		hri_port_write_WRCONFIG_reg(PORT,
 304:	4a0a      	ldr	r2, [pc, #40]	@ (330 <gpio_set_pin_direction+0x54>)
		break;

	case GPIO_DIRECTION_OUT:
		hri_port_set_DIR_reg(PORT_IOBUS, port, mask);
		hri_port_write_WRCONFIG_reg(PORT, port, PORT_WRCONFIG_WRPINCFG | (mask & 0xffff));
		hri_port_write_WRCONFIG_reg(
 306:	4322      	orrs	r2, r4
 308:	629a      	str	r2, [r3, #40]	@ 0x28
}
 30a:	bd30      	pop	{r4, r5, pc}
	((Port *)hw)->Group[submodule_index].DIRSET.reg = mask;
 30c:	21c0      	movs	r1, #192	@ 0xc0
 30e:	05c9      	lsls	r1, r1, #23
 310:	1859      	adds	r1, r3, r1
 312:	608a      	str	r2, [r1, #8]
		hri_port_write_WRCONFIG_reg(PORT, port, PORT_WRCONFIG_WRPINCFG | (mask & 0xffff));
 314:	2280      	movs	r2, #128	@ 0x80
	((Port *)hw)->Group[submodule_index].WRCONFIG.reg = data;
 316:	4905      	ldr	r1, [pc, #20]	@ (32c <gpio_set_pin_direction+0x50>)
 318:	05d2      	lsls	r2, r2, #23
 31a:	432a      	orrs	r2, r5
 31c:	185b      	adds	r3, r3, r1
 31e:	629a      	str	r2, [r3, #40]	@ 0x28
		hri_port_write_WRCONFIG_reg(
 320:	22c0      	movs	r2, #192	@ 0xc0
 322:	0612      	lsls	r2, r2, #24
 324:	e7ef      	b.n	306 <gpio_set_pin_direction+0x2a>
 326:	46c0      	nop			@ (mov r8, r8)
 328:	40020000 	.word	0x40020000
 32c:	41004400 	.word	0x41004400
 330:	c0020000 	.word	0xc0020000

00000334 <_gpio_set_pin_function.constprop.0>:
	tmp = ((Port *)hw)->Group[submodule_index].PINCFG[index].reg;
 334:	221f      	movs	r2, #31
/**
 * \brief Set gpio pin function
 */
static inline void _gpio_set_pin_function(const uint32_t gpio, const uint32_t function)
{
	uint8_t port = GPIO_PORT(gpio);
 336:	0943      	lsrs	r3, r0, #5
 338:	01db      	lsls	r3, r3, #7
 33a:	4010      	ands	r0, r2
 33c:	18c0      	adds	r0, r0, r3
 33e:	4b03      	ldr	r3, [pc, #12]	@ (34c <_gpio_set_pin_function.constprop.0+0x18>)
	tmp &= ~PORT_PINCFG_PMUXEN;
 340:	3a1e      	subs	r2, #30
	tmp = ((Port *)hw)->Group[submodule_index].PINCFG[index].reg;
 342:	18c0      	adds	r0, r0, r3
 344:	7803      	ldrb	r3, [r0, #0]
	tmp &= ~PORT_PINCFG_PMUXEN;
 346:	4393      	bics	r3, r2
	((Port *)hw)->Group[submodule_index].PINCFG[index].reg = tmp;
 348:	7003      	strb	r3, [r0, #0]
		} else {
			// Even numbered pin
			hri_port_write_PMUX_PMUXE_bf(PORT, port, pin >> 1, function & 0xffff);
		}
	}
}
 34a:	4770      	bx	lr
 34c:	41004440 	.word	0x41004440

00000350 <system_init>:
#include <hal_init.h>
#include <hpl_gclk_base.h>
#include <hpl_pm_base.h>

void system_init(void)
{
 350:	b5f8      	push	{r3, r4, r5, r6, r7, lr}
 * Currently the following initialization functions are supported:
 *  - System clock initialization
 */
static inline void init_mcu(void)
{
	_init_chip();
 352:	4b5c      	ldr	r3, [pc, #368]	@ (4c4 <system_init+0x174>)
	((Port *)hw)->Group[submodule_index].OUTCLR.reg = mask;
 354:	26c0      	movs	r6, #192	@ 0xc0
 356:	2704      	movs	r7, #4
 358:	4798      	blx	r3
	                   // <false"> Low
	                   // <true"> High
	                   false);

	// Set pin direction to output
	gpio_set_pin_direction(PYRO_2, GPIO_DIRECTION_OUT);
 35a:	2102      	movs	r1, #2
 35c:	05f6      	lsls	r6, r6, #23
 35e:	4d5a      	ldr	r5, [pc, #360]	@ (4c8 <system_init+0x178>)
 360:	0008      	movs	r0, r1
 362:	6177      	str	r7, [r6, #20]
 364:	47a8      	blx	r5
	_gpio_set_pin_function(pin, function);
 366:	4c59      	ldr	r4, [pc, #356]	@ (4cc <system_init+0x17c>)
 368:	2002      	movs	r0, #2
 36a:	47a0      	blx	r4
 36c:	2310      	movs	r3, #16
	                   // <false"> Low
	                   // <true"> High
	                   false);

	// Set pin direction to output
	gpio_set_pin_direction(PYRO_1, GPIO_DIRECTION_OUT);
 36e:	0038      	movs	r0, r7
 370:	6173      	str	r3, [r6, #20]
 372:	2102      	movs	r1, #2
 374:	47a8      	blx	r5
 376:	0038      	movs	r0, r7
 378:	47a0      	blx	r4
	((Port *)hw)->Group[submodule_index].OUTSET.reg = mask;
 37a:	2320      	movs	r3, #32
	                   // <false"> Low
	                   // <true"> High
	                   true);

	// Set pin direction to output
	gpio_set_pin_direction(RF_NRST, GPIO_DIRECTION_OUT);
 37c:	2102      	movs	r1, #2
 37e:	61b3      	str	r3, [r6, #24]
 380:	2005      	movs	r0, #5
 382:	47a8      	blx	r5
 384:	2005      	movs	r0, #5
 386:	47a0      	blx	r4
	((Port *)hw)->Group[submodule_index].OUTCLR.reg = mask;
 388:	2380      	movs	r3, #128	@ 0x80
	                   // <false"> Low
	                   // <true"> High
	                   false);

	// Set pin direction to output
	gpio_set_pin_direction(RF_SW, GPIO_DIRECTION_OUT);
 38a:	2102      	movs	r1, #2
 38c:	6173      	str	r3, [r6, #20]
 38e:	2007      	movs	r0, #7
 390:	47a8      	blx	r5
 392:	2007      	movs	r0, #7
 394:	47a0      	blx	r4
	gpio_set_pin_function(RF_SW, GPIO_PIN_FUNCTION_OFF);

	// GPIO on PA08

	// Set pin direction to input
	gpio_set_pin_direction(RF_INT, GPIO_DIRECTION_IN);
 396:	2101      	movs	r1, #1
 398:	2008      	movs	r0, #8
 39a:	47a8      	blx	r5
	((Port *)hw)->Group[submodule_index].PINCFG[index].reg &= ~PORT_PINCFG_PULLEN;
 39c:	4a4c      	ldr	r2, [pc, #304]	@ (4d0 <system_init+0x180>)
 39e:	2008      	movs	r0, #8
 3a0:	3248      	adds	r2, #72	@ 0x48
 3a2:	7813      	ldrb	r3, [r2, #0]
 3a4:	43bb      	bics	r3, r7
 3a6:	7013      	strb	r3, [r2, #0]
 3a8:	47a0      	blx	r4
	gpio_set_pin_function(RF_INT, GPIO_PIN_FUNCTION_OFF);

	// GPIO on PA09

	// Set pin direction to input
	gpio_set_pin_direction(RF_BUSY, GPIO_DIRECTION_IN);
 3aa:	2101      	movs	r1, #1
 3ac:	2009      	movs	r0, #9
 3ae:	47a8      	blx	r5
 3b0:	4a47      	ldr	r2, [pc, #284]	@ (4d0 <system_init+0x180>)
 3b2:	2009      	movs	r0, #9
 3b4:	3249      	adds	r2, #73	@ 0x49
 3b6:	7813      	ldrb	r3, [r2, #0]
 3b8:	43bb      	bics	r3, r7
 3ba:	7013      	strb	r3, [r2, #0]
 3bc:	47a0      	blx	r4
	((Port *)hw)->Group[submodule_index].OUTSET.reg = mask;
 3be:	2380      	movs	r3, #128	@ 0x80
 3c0:	00db      	lsls	r3, r3, #3
 3c2:	61b3      	str	r3, [r6, #24]
	                   // <false"> Low
	                   // <true"> High
	                   true);

	// Set pin direction to output
	gpio_set_pin_direction(RF_CS, GPIO_DIRECTION_OUT);
 3c4:	2102      	movs	r1, #2
 3c6:	200a      	movs	r0, #10
 3c8:	47a8      	blx	r5
 3ca:	200a      	movs	r0, #10
 3cc:	47a0      	blx	r4
	gpio_set_pin_function(RF_CS, GPIO_PIN_FUNCTION_OFF);

	// GPIO on PA11

	// Set pin direction to input
	gpio_set_pin_direction(SD_DETECT, GPIO_DIRECTION_IN);
 3ce:	2101      	movs	r1, #1
 3d0:	200b      	movs	r0, #11
 3d2:	47a8      	blx	r5
	((Port *)hw)->Group[submodule_index].PINCFG[index].reg &= ~PORT_PINCFG_PULLEN;
 3d4:	4a3e      	ldr	r2, [pc, #248]	@ (4d0 <system_init+0x180>)
 3d6:	200b      	movs	r0, #11
 3d8:	324b      	adds	r2, #75	@ 0x4b
 3da:	7813      	ldrb	r3, [r2, #0]
 3dc:	43bb      	bics	r3, r7
 3de:	7013      	strb	r3, [r2, #0]
 3e0:	47a0      	blx	r4
 3e2:	200c      	movs	r0, #12
 3e4:	47a0      	blx	r4
	((Port *)hw)->Group[submodule_index].OUTCLR.reg = mask;
 3e6:	2380      	movs	r3, #128	@ 0x80
 3e8:	019b      	lsls	r3, r3, #6
 3ea:	6173      	str	r3, [r6, #20]
	                   // <false"> Low
	                   // <true"> High
	                   false);

	// Set pin direction to output
	gpio_set_pin_direction(BUZZER, GPIO_DIRECTION_OUT);
 3ec:	2102      	movs	r1, #2
 3ee:	200d      	movs	r0, #13
 3f0:	47a8      	blx	r5
 3f2:	200d      	movs	r0, #13
 3f4:	47a0      	blx	r4
	((Port *)hw)->Group[submodule_index].OUTSET.reg = mask;
 3f6:	2380      	movs	r3, #128	@ 0x80
 3f8:	01db      	lsls	r3, r3, #7
 3fa:	61b3      	str	r3, [r6, #24]
	                   // <false"> Low
	                   // <true"> High
	                   true);

	// Set pin direction to output
	gpio_set_pin_direction(SD_CS, GPIO_DIRECTION_OUT);
 3fc:	2102      	movs	r1, #2
 3fe:	200e      	movs	r0, #14
 400:	47a8      	blx	r5
 402:	200e      	movs	r0, #14
 404:	47a0      	blx	r4
	gpio_set_pin_function(SD_CS, GPIO_PIN_FUNCTION_OFF);

	// GPIO on PA15

	// Set pin direction to input
	gpio_set_pin_direction(BMP_INT, GPIO_DIRECTION_IN);
 406:	2101      	movs	r1, #1
 408:	200f      	movs	r0, #15
 40a:	47a8      	blx	r5
	((Port *)hw)->Group[submodule_index].PINCFG[index].reg &= ~PORT_PINCFG_PULLEN;
 40c:	4a30      	ldr	r2, [pc, #192]	@ (4d0 <system_init+0x180>)
 40e:	200f      	movs	r0, #15
 410:	324f      	adds	r2, #79	@ 0x4f
 412:	7813      	ldrb	r3, [r2, #0]
 414:	43bb      	bics	r3, r7
 416:	7013      	strb	r3, [r2, #0]
 418:	47a0      	blx	r4
	((Port *)hw)->Group[submodule_index].OUTCLR.reg = mask;
 41a:	2380      	movs	r3, #128	@ 0x80
 41c:	025b      	lsls	r3, r3, #9
 41e:	6173      	str	r3, [r6, #20]
	                   // <false"> Low
	                   // <true"> High
	                   false);

	// Set pin direction to output
	gpio_set_pin_direction(SERVO_1, GPIO_DIRECTION_OUT);
 420:	2102      	movs	r1, #2
 422:	2010      	movs	r0, #16
 424:	47a8      	blx	r5
 426:	2010      	movs	r0, #16
 428:	47a0      	blx	r4
	((Port *)hw)->Group[submodule_index].OUTSET.reg = mask;
 42a:	2380      	movs	r3, #128	@ 0x80
 42c:	029b      	lsls	r3, r3, #10
 42e:	61b3      	str	r3, [r6, #24]
	                   // <false"> Low
	                   // <true"> High
	                   true);

	// Set pin direction to output
	gpio_set_pin_direction(FLASH_CS, GPIO_DIRECTION_OUT);
 430:	2102      	movs	r1, #2
 432:	2011      	movs	r0, #17
 434:	47a8      	blx	r5
 436:	2011      	movs	r0, #17
 438:	47a0      	blx	r4
	((Port *)hw)->Group[submodule_index].OUTCLR.reg = mask;
 43a:	2380      	movs	r3, #128	@ 0x80
 43c:	02db      	lsls	r3, r3, #11
 43e:	6173      	str	r3, [r6, #20]
	                   // <false"> Low
	                   // <true"> High
	                   false);

	// Set pin direction to output
	gpio_set_pin_direction(SERVO_2, GPIO_DIRECTION_OUT);
 440:	2102      	movs	r1, #2
 442:	2012      	movs	r0, #18
 444:	47a8      	blx	r5
 446:	2012      	movs	r0, #18
 448:	47a0      	blx	r4
 44a:	2380      	movs	r3, #128	@ 0x80
 44c:	031b      	lsls	r3, r3, #12
 44e:	6173      	str	r3, [r6, #20]
	                   // <false"> Low
	                   // <true"> High
	                   false);

	// Set pin direction to output
	gpio_set_pin_direction(SERVO_3, GPIO_DIRECTION_OUT);
 450:	2102      	movs	r1, #2
 452:	2013      	movs	r0, #19
 454:	47a8      	blx	r5
 456:	2013      	movs	r0, #19
 458:	47a0      	blx	r4
	gpio_set_pin_function(SERVO_3, GPIO_PIN_FUNCTION_OFF);

	// GPIO on PA21

	// Set pin direction to input
	gpio_set_pin_direction(IMU_INT, GPIO_DIRECTION_IN);
 45a:	2101      	movs	r1, #1
 45c:	2015      	movs	r0, #21
 45e:	47a8      	blx	r5
	((Port *)hw)->Group[submodule_index].PINCFG[index].reg &= ~PORT_PINCFG_PULLEN;
 460:	4a1b      	ldr	r2, [pc, #108]	@ (4d0 <system_init+0x180>)
 462:	2015      	movs	r0, #21
 464:	3255      	adds	r2, #85	@ 0x55
 466:	7813      	ldrb	r3, [r2, #0]
	((Port *)hw)->Group[submodule_index].OUTCLR.reg = mask;
 468:	3694      	adds	r6, #148	@ 0x94
	((Port *)hw)->Group[submodule_index].PINCFG[index].reg &= ~PORT_PINCFG_PULLEN;
 46a:	43bb      	bics	r3, r7
 46c:	7013      	strb	r3, [r2, #0]
 46e:	47a0      	blx	r4
 470:	4a17      	ldr	r2, [pc, #92]	@ (4d0 <system_init+0x180>)
 472:	2016      	movs	r0, #22
 474:	3256      	adds	r2, #86	@ 0x56
 476:	7813      	ldrb	r3, [r2, #0]
 478:	43bb      	bics	r3, r7
 47a:	7013      	strb	r3, [r2, #0]
 47c:	47a0      	blx	r4
 47e:	4b14      	ldr	r3, [pc, #80]	@ (4d0 <system_init+0x180>)
 480:	2017      	movs	r0, #23
 482:	3357      	adds	r3, #87	@ 0x57
 484:	781a      	ldrb	r2, [r3, #0]
 486:	43ba      	bics	r2, r7
 488:	701a      	strb	r2, [r3, #0]
 48a:	47a0      	blx	r4
	((Port *)hw)->Group[submodule_index].OUTCLR.reg = mask;
 48c:	6037      	str	r7, [r6, #0]
	                   // <false"> Low
	                   // <true"> High
	                   false);

	// Set pin direction to output
	gpio_set_pin_direction(RGB_RED, GPIO_DIRECTION_OUT);
 48e:	2102      	movs	r1, #2
 490:	2022      	movs	r0, #34	@ 0x22
 492:	47a8      	blx	r5
 494:	2022      	movs	r0, #34	@ 0x22
 496:	47a0      	blx	r4
 498:	2380      	movs	r3, #128	@ 0x80
 49a:	005b      	lsls	r3, r3, #1
 49c:	6033      	str	r3, [r6, #0]
	                   // <false"> Low
	                   // <true"> High
	                   false);

	// Set pin direction to output
	gpio_set_pin_direction(RGB_BLUE, GPIO_DIRECTION_OUT);
 49e:	2102      	movs	r1, #2
 4a0:	2028      	movs	r0, #40	@ 0x28
 4a2:	47a8      	blx	r5
 4a4:	2028      	movs	r0, #40	@ 0x28
 4a6:	47a0      	blx	r4
 4a8:	2380      	movs	r3, #128	@ 0x80
 4aa:	009b      	lsls	r3, r3, #2
 4ac:	6033      	str	r3, [r6, #0]
	                   // <false"> Low
	                   // <true"> High
	                   false);

	// Set pin direction to output
	gpio_set_pin_direction(RGB_GREEN, GPIO_DIRECTION_OUT);
 4ae:	2102      	movs	r1, #2
 4b0:	2029      	movs	r0, #41	@ 0x29
 4b2:	47a8      	blx	r5
 4b4:	2029      	movs	r0, #41	@ 0x29
 4b6:	47a0      	blx	r4
 4b8:	202a      	movs	r0, #42	@ 0x2a
 4ba:	47a0      	blx	r4
 4bc:	202b      	movs	r0, #43	@ 0x2b
 4be:	47a0      	blx	r4
	gpio_set_pin_function(MOSI, GPIO_PIN_FUNCTION_OFF);

	// GPIO on PB11

	gpio_set_pin_function(SCK, GPIO_PIN_FUNCTION_OFF);
}
 4c0:	bdf8      	pop	{r3, r4, r5, r6, r7, pc}
 4c2:	46c0      	nop			@ (mov r8, r8)
 4c4:	000001f5 	.word	0x000001f5
 4c8:	000002dd 	.word	0x000002dd
 4cc:	00000335 	.word	0x00000335
 4d0:	41004400 	.word	0x41004400

000004d4 <atmel_start_init>:

/**
 * Initializes MCU, drivers and middleware in the project
 **/
void atmel_start_init(void)
{
 4d4:	b510      	push	{r4, lr}
	system_init();
 4d6:	4b01      	ldr	r3, [pc, #4]	@ (4dc <atmel_start_init+0x8>)
 4d8:	4798      	blx	r3
}
 4da:	bd10      	pop	{r4, pc}
 4dc:	00000351 	.word	0x00000351

000004e0 <__udivsi3>:
 4e0:	2900      	cmp	r1, #0
 4e2:	d034      	beq.n	54e <.udivsi3_skip_div0_test+0x6a>

000004e4 <.udivsi3_skip_div0_test>:
 4e4:	2301      	movs	r3, #1
 4e6:	2200      	movs	r2, #0
 4e8:	b410      	push	{r4}
 4ea:	4288      	cmp	r0, r1
 4ec:	d32c      	bcc.n	548 <.udivsi3_skip_div0_test+0x64>
 4ee:	2401      	movs	r4, #1
 4f0:	0724      	lsls	r4, r4, #28
 4f2:	42a1      	cmp	r1, r4
 4f4:	d204      	bcs.n	500 <.udivsi3_skip_div0_test+0x1c>
 4f6:	4281      	cmp	r1, r0
 4f8:	d202      	bcs.n	500 <.udivsi3_skip_div0_test+0x1c>
 4fa:	0109      	lsls	r1, r1, #4
 4fc:	011b      	lsls	r3, r3, #4
 4fe:	e7f8      	b.n	4f2 <.udivsi3_skip_div0_test+0xe>
 500:	00e4      	lsls	r4, r4, #3
 502:	42a1      	cmp	r1, r4
 504:	d204      	bcs.n	510 <.udivsi3_skip_div0_test+0x2c>
 506:	4281      	cmp	r1, r0
 508:	d202      	bcs.n	510 <.udivsi3_skip_div0_test+0x2c>
 50a:	0049      	lsls	r1, r1, #1
 50c:	005b      	lsls	r3, r3, #1
 50e:	e7f8      	b.n	502 <.udivsi3_skip_div0_test+0x1e>
 510:	4288      	cmp	r0, r1
 512:	d301      	bcc.n	518 <.udivsi3_skip_div0_test+0x34>
 514:	1a40      	subs	r0, r0, r1
 516:	431a      	orrs	r2, r3
 518:	084c      	lsrs	r4, r1, #1
 51a:	42a0      	cmp	r0, r4
 51c:	d302      	bcc.n	524 <.udivsi3_skip_div0_test+0x40>
 51e:	1b00      	subs	r0, r0, r4
 520:	085c      	lsrs	r4, r3, #1
 522:	4322      	orrs	r2, r4
 524:	088c      	lsrs	r4, r1, #2
 526:	42a0      	cmp	r0, r4
 528:	d302      	bcc.n	530 <.udivsi3_skip_div0_test+0x4c>
 52a:	1b00      	subs	r0, r0, r4
 52c:	089c      	lsrs	r4, r3, #2
 52e:	4322      	orrs	r2, r4
 530:	08cc      	lsrs	r4, r1, #3
 532:	42a0      	cmp	r0, r4
 534:	d302      	bcc.n	53c <.udivsi3_skip_div0_test+0x58>
 536:	1b00      	subs	r0, r0, r4
 538:	08dc      	lsrs	r4, r3, #3
 53a:	4322      	orrs	r2, r4
 53c:	2800      	cmp	r0, #0
 53e:	d003      	beq.n	548 <.udivsi3_skip_div0_test+0x64>
 540:	091b      	lsrs	r3, r3, #4
 542:	d001      	beq.n	548 <.udivsi3_skip_div0_test+0x64>
 544:	0909      	lsrs	r1, r1, #4
 546:	e7e3      	b.n	510 <.udivsi3_skip_div0_test+0x2c>
 548:	0010      	movs	r0, r2
 54a:	bc10      	pop	{r4}
 54c:	4770      	bx	lr
 54e:	b501      	push	{r0, lr}
 550:	2000      	movs	r0, #0
 552:	f000 f80b 	bl	56c <__aeabi_idiv0>
 556:	bd02      	pop	{r1, pc}

00000558 <__aeabi_uidivmod>:
 558:	2900      	cmp	r1, #0
 55a:	d0f8      	beq.n	54e <.udivsi3_skip_div0_test+0x6a>
 55c:	b503      	push	{r0, r1, lr}
 55e:	f7ff ffc1 	bl	4e4 <.udivsi3_skip_div0_test>
 562:	bc0e      	pop	{r1, r2, r3}
 564:	4342      	muls	r2, r0
 566:	1a89      	subs	r1, r1, r2
 568:	4718      	bx	r3
 56a:	46c0      	nop			@ (mov r8, r8)

0000056c <__aeabi_idiv0>:
 56c:	4770      	bx	lr
 56e:	46c0      	nop			@ (mov r8, r8)

00000570 <__libc_init_array>:
 570:	b570      	push	{r4, r5, r6, lr}
 572:	2600      	movs	r6, #0
 574:	4c0c      	ldr	r4, [pc, #48]	@ (5a8 <__libc_init_array+0x38>)
 576:	4d0d      	ldr	r5, [pc, #52]	@ (5ac <__libc_init_array+0x3c>)
 578:	1b64      	subs	r4, r4, r5
 57a:	10a4      	asrs	r4, r4, #2
 57c:	42a6      	cmp	r6, r4
 57e:	d109      	bne.n	594 <__libc_init_array+0x24>
 580:	2600      	movs	r6, #0
 582:	f000 f819 	bl	5b8 <_init>
 586:	4c0a      	ldr	r4, [pc, #40]	@ (5b0 <__libc_init_array+0x40>)
 588:	4d0a      	ldr	r5, [pc, #40]	@ (5b4 <__libc_init_array+0x44>)
 58a:	1b64      	subs	r4, r4, r5
 58c:	10a4      	asrs	r4, r4, #2
 58e:	42a6      	cmp	r6, r4
 590:	d105      	bne.n	59e <__libc_init_array+0x2e>
 592:	bd70      	pop	{r4, r5, r6, pc}
 594:	00b3      	lsls	r3, r6, #2
 596:	58eb      	ldr	r3, [r5, r3]
 598:	4798      	blx	r3
 59a:	3601      	adds	r6, #1
 59c:	e7ee      	b.n	57c <__libc_init_array+0xc>
 59e:	00b3      	lsls	r3, r6, #2
 5a0:	58eb      	ldr	r3, [r5, r3]
 5a2:	4798      	blx	r3
 5a4:	3601      	adds	r6, #1
 5a6:	e7f2      	b.n	58e <__libc_init_array+0x1e>
 5a8:	000005c4 	.word	0x000005c4
 5ac:	000005c4 	.word	0x000005c4
 5b0:	000005c8 	.word	0x000005c8
 5b4:	000005c4 	.word	0x000005c4

000005b8 <_init>:
 5b8:	b5f8      	push	{r3, r4, r5, r6, r7, lr}
 5ba:	46c0      	nop			@ (mov r8, r8)
 5bc:	bcf8      	pop	{r3, r4, r5, r6, r7}
 5be:	bc08      	pop	{r3}
 5c0:	469e      	mov	lr, r3
 5c2:	4770      	bx	lr

000005c4 <__frame_dummy_init_array_entry>:
 5c4:	00dd 0000                                   ....

000005c8 <_fini>:
 5c8:	b5f8      	push	{r3, r4, r5, r6, r7, lr}
 5ca:	46c0      	nop			@ (mov r8, r8)
 5cc:	bcf8      	pop	{r3, r4, r5, r6, r7}
 5ce:	bc08      	pop	{r3}
 5d0:	469e      	mov	lr, r3
 5d2:	4770      	bx	lr

000005d4 <__do_global_dtors_aux_fini_array_entry>:
 5d4:	00b5 0000                                   ....
